target datalayout = "e-m:e-p270:32:32-p271:32:32-p272:64:64-i64:64-i128:128-f80:128-n8:16:32:64-S128"
target triple = "x86_64-pc-linux-gnu"

%struct._e_guid_t = type { i32, i16, i16, [8 x i8] }
%struct._value_string = type { i32, ptr }
%struct.remunk_remqueryinterface_call_s = type { i32, ptr }
%struct._dcerpc_info = type { ptr, i32, i64, i8, i8, i8, i32, i32, i32, i32, i32, i32, i32, i32, ptr, ptr, ptr, ptr, %struct.anon }
%struct.anon = type { i8, ptr, ptr, ptr, i8 }
%struct._dcerpc_call_value = type { %struct._e_guid_t, i16, %struct._e_guid_t, i16, i32, %struct.nstime_t, i32, i32, ptr, ptr, ptr, i32 }
%struct.nstime_t = type { i64, i32 }
%struct._packet_info = type { ptr, ptr, i32, i32, %struct.nstime_t, %struct.nstime_t, %struct.nstime_t, i8, ptr, ptr, ptr, ptr, %struct._address, %struct._address, %struct._address, %struct._address, %struct._address, %struct._address, i32, ptr, i8, [3 x i8], %struct.anon.0, i32, i32, i32, i32, ptr, i8, ptr, ptr, i16, i16, i32, i32, i16, i32, i32, ptr, ptr, ptr, i8, i8, i16, i16, i16, i32, i16, i16, ptr, ptr, ptr, ptr, ptr, i32, i32 }
%struct._address = type { i32, i32, ptr, ptr }
%struct.anon.0 = type { i8, [3 x i8] }

@hf_remunk_qiresult = internal global i32 0, align 4
@ett_remunk_rqi_result = internal global i32 0, align 4
@.str.28 = private unnamed_addr constant [9 x i8] c"[%u]: %s\00", align 1
@dcom_hresult_vals = external constant [0 x %struct._value_string], align 8
@.str.29 = private unnamed_addr constant [17 x i8] c"Unknown (0x%08x)\00", align 1
@.str.30 = private unnamed_addr constant [8 x i8] c" %s[%u]\00", align 1
@.str.31 = private unnamed_addr constant [7 x i8] c" -> %s\00", align 1

; Function Attrs: null_pointer_is_valid sspstrong uwtable
define internal i32 @dissect_remunk_remqueryinterface_resp(ptr noundef %0, i32 noundef %1, ptr noundef %2, ptr noundef %3, ptr noundef %4, ptr noundef %5) #0 {
  %7 = alloca ptr, align 8
  %8 = alloca i32, align 4
  %9 = alloca ptr, align 8
  %10 = alloca ptr, align 8
  %11 = alloca ptr, align 8
  %12 = alloca ptr, align 8
  %13 = alloca i32, align 4
  %14 = alloca i32, align 4
  %15 = alloca i32, align 4
  %16 = alloca ptr, align 8
  %17 = alloca ptr, align 8
  %18 = alloca i32, align 4
  %19 = alloca i32, align 4
  %20 = alloca %struct._e_guid_t, align 4
  %21 = alloca %struct._e_guid_t, align 4
  %22 = alloca ptr, align 8
  %23 = alloca i64, align 8
  %24 = alloca i64, align 8
  %25 = alloca %struct._e_guid_t, align 4
  store ptr %0, ptr %7, align 8
  store i32 %1, ptr %8, align 4
  store ptr %2, ptr %9, align 8
  store ptr %3, ptr %10, align 8
  store ptr %4, ptr %11, align 8
  store ptr %5, ptr %12, align 8
  call void @llvm.lifetime.start.p0(i64 4, ptr %13) #6
  call void @llvm.lifetime.start.p0(i64 4, ptr %14) #6
  call void @llvm.lifetime.start.p0(i64 4, ptr %15) #6
  call void @llvm.lifetime.start.p0(i64 8, ptr %16) #6
  call void @llvm.lifetime.start.p0(i64 8, ptr %17) #6
  call void @llvm.lifetime.start.p0(i64 4, ptr %18) #6
  call void @llvm.lifetime.start.p0(i64 4, ptr %19) #6
  call void @llvm.lifetime.start.p0(i64 16, ptr %20) #6
  call void @llvm.lifetime.start.p0(i64 16, ptr %21) #6
  call void @llvm.memset.p0.i64(ptr align 4 %21, i8 0, i64 16, i1 false)
  call void @llvm.lifetime.start.p0(i64 8, ptr %22) #6
  %26 = load ptr, ptr %11, align 8
  %27 = getelementptr inbounds nuw %struct._dcerpc_info, ptr %26, i32 0, i32 14
  %28 = load ptr, ptr %27, align 8
  %29 = getelementptr inbounds nuw %struct._dcerpc_call_value, ptr %28, i32 0, i32 9
  %30 = load ptr, ptr %29, align 8
  store ptr %30, ptr %22, align 8
  call void @llvm.lifetime.start.p0(i64 8, ptr %23) #6
  call void @llvm.lifetime.start.p0(i64 8, ptr %24) #6
  call void @llvm.lifetime.start.p0(i64 16, ptr %25) #6
  %31 = load ptr, ptr %7, align 8
  %32 = load i32, ptr %8, align 4
  %33 = load ptr, ptr %9, align 8
  %34 = load ptr, ptr %10, align 8
  %35 = load ptr, ptr %11, align 8
  %36 = load ptr, ptr %12, align 8
  %37 = call i32 @dissect_dcom_that(ptr noundef %31, i32 noundef %32, ptr noundef %33, ptr noundef %34, ptr noundef %35, ptr noundef %36)
  store i32 %37, ptr %8, align 4
  %38 = load ptr, ptr %7, align 8
  %39 = load i32, ptr %8, align 4
  %40 = load ptr, ptr %9, align 8
  %41 = load ptr, ptr %10, align 8
  %42 = load ptr, ptr %11, align 8
  %43 = load ptr, ptr %12, align 8
  %44 = call i32 @dissect_dcom_dcerpc_pointer(ptr noundef %38, i32 noundef %39, ptr noundef %40, ptr noundef %41, ptr noundef %42, ptr noundef %43, ptr noundef %13)
  store i32 %44, ptr %8, align 4
  %45 = load ptr, ptr %7, align 8
  %46 = load i32, ptr %8, align 4
  %47 = load ptr, ptr %9, align 8
  %48 = load ptr, ptr %10, align 8
  %49 = load ptr, ptr %11, align 8
  %50 = load ptr, ptr %12, align 8
  %51 = call i32 @dissect_dcom_dcerpc_array_size(ptr noundef %45, i32 noundef %46, ptr noundef %47, ptr noundef %48, ptr noundef %49, ptr noundef %50, ptr noundef %14)
  store i32 %51, ptr %8, align 4
  store i32 1, ptr %15, align 4
  br label %52

52:                                               ; preds = %118, %6
  %53 = load i32, ptr %14, align 4
  %54 = add i32 %53, -1
  store i32 %54, ptr %14, align 4
  %55 = icmp ne i32 %53, 0
  br i1 %55, label %56, label %135

56:                                               ; preds = %52
  %57 = load ptr, ptr %10, align 8
  %58 = load i32, ptr @hf_remunk_qiresult, align 4
  %59 = load ptr, ptr %7, align 8
  %60 = load i32, ptr %8, align 4
  %61 = call ptr @proto_tree_add_item(ptr noundef %57, i32 noundef %58, ptr noundef %59, i32 noundef %60, i32 noundef 0, i32 noundef 0)
  store ptr %61, ptr %16, align 8
  %62 = load ptr, ptr %16, align 8
  %63 = load i32, ptr @ett_remunk_rqi_result, align 4
  %64 = call ptr @proto_item_add_subtree(ptr noundef %62, i32 noundef %63)
  store ptr %64, ptr %17, align 8
  %65 = load ptr, ptr %7, align 8
  %66 = load i32, ptr %8, align 4
  %67 = load ptr, ptr %9, align 8
  %68 = load ptr, ptr %17, align 8
  %69 = load ptr, ptr %11, align 8
  %70 = load ptr, ptr %12, align 8
  %71 = call i32 @dissect_dcom_HRESULT(ptr noundef %65, i32 noundef %66, ptr noundef %67, ptr noundef %68, ptr noundef %69, ptr noundef %70, ptr noundef %18)
  store i32 %71, ptr %8, align 4
  %72 = load i32, ptr %8, align 4
  %73 = sub i32 %72, 4
  store i32 %73, ptr %19, align 4
  %74 = load ptr, ptr %7, align 8
  %75 = load i32, ptr %8, align 4
  %76 = load ptr, ptr %9, align 8
  %77 = load ptr, ptr %17, align 8
  %78 = load ptr, ptr %11, align 8
  %79 = load ptr, ptr %12, align 8
  %80 = call i32 @dissect_dcom_dcerpc_pointer(ptr noundef %74, i32 noundef %75, ptr noundef %76, ptr noundef %77, ptr noundef %78, ptr noundef %79, ptr noundef %13)
  store i32 %80, ptr %8, align 4
  %81 = load ptr, ptr %22, align 8
  %82 = icmp ne ptr %81, null
  br i1 %82, label %83, label %97

83:                                               ; preds = %56
  %84 = load i32, ptr %15, align 4
  %85 = load ptr, ptr %22, align 8
  %86 = getelementptr inbounds nuw %struct.remunk_remqueryinterface_call_s, ptr %85, i32 0, i32 0
  %87 = load i32, ptr %86, align 8
  %88 = icmp ule i32 %84, %87
  br i1 %88, label %89, label %97

89:                                               ; preds = %83
  %90 = load ptr, ptr %22, align 8
  %91 = getelementptr inbounds nuw %struct.remunk_remqueryinterface_call_s, ptr %90, i32 0, i32 1
  %92 = load ptr, ptr %91, align 8
  %93 = load i32, ptr %15, align 4
  %94 = sub i32 %93, 1
  %95 = zext i32 %94 to i64
  %96 = getelementptr %struct._e_guid_t, ptr %92, i64 %95
  call void @llvm.memcpy.p0.p0.i64(ptr align 4 %20, ptr align 4 %96, i64 16, i1 false)
  br label %98

97:                                               ; preds = %83, %56
  call void @llvm.memcpy.p0.p0.i64(ptr align 4 %20, ptr align 4 %21, i64 16, i1 false)
  br label %98

98:                                               ; preds = %97, %89
  %99 = load ptr, ptr %7, align 8
  %100 = load i32, ptr %8, align 4
  %101 = load ptr, ptr %9, align 8
  %102 = load ptr, ptr %17, align 8
  %103 = load ptr, ptr %11, align 8
  %104 = load ptr, ptr %12, align 8
  %105 = call i32 @dissect_dcom_STDOBJREF(ptr noundef %99, i32 noundef %100, ptr noundef %101, ptr noundef %102, ptr noundef %103, ptr noundef %104, i32 noundef 0, ptr noundef %23, ptr noundef %24, ptr noundef %25)
  store i32 %105, ptr %8, align 4
  %106 = load ptr, ptr %9, align 8
  %107 = getelementptr inbounds nuw %struct._packet_info, ptr %106, i32 0, i32 14
  %108 = getelementptr inbounds nuw %struct._address, ptr %107, i32 0, i32 0
  %109 = load i32, ptr %108, align 8
  %110 = icmp eq i32 %109, 2
  br i1 %110, label %111, label %118

111:                                              ; preds = %98
  %112 = load ptr, ptr %9, align 8
  %113 = load ptr, ptr %9, align 8
  %114 = getelementptr inbounds nuw %struct._packet_info, ptr %113, i32 0, i32 14
  %115 = load i64, ptr %23, align 8
  %116 = load i64, ptr %24, align 8
  %117 = call ptr @dcom_interface_new(ptr noundef %112, ptr noundef %114, ptr noundef %20, i64 noundef %115, i64 noundef %116, ptr noundef %25)
  br label %118

118:                                              ; preds = %111, %98
  %119 = load ptr, ptr %16, align 8
  %120 = load i32, ptr %15, align 4
  %121 = load i32, ptr %18, align 4
  %122 = call ptr @val_to_str(i32 noundef %121, ptr noundef @dcom_hresult_vals, ptr noundef @.str.29)
  call void (ptr, ptr, ...) @proto_item_append_text(ptr noundef %119, ptr noundef @.str.28, i32 noundef %120, ptr noundef %122)
  %123 = load ptr, ptr %16, align 8
  %124 = load i32, ptr %8, align 4
  %125 = load i32, ptr %19, align 4
  %126 = sub i32 %124, %125
  call void @proto_item_set_len(ptr noundef %123, i32 noundef %126)
  %127 = load ptr, ptr %9, align 8
  %128 = getelementptr inbounds nuw %struct._packet_info, ptr %127, i32 0, i32 1
  %129 = load ptr, ptr %128, align 8
  %130 = load i32, ptr %18, align 4
  %131 = call ptr @val_to_str(i32 noundef %130, ptr noundef @dcom_hresult_vals, ptr noundef @.str.29)
  %132 = load i32, ptr %15, align 4
  call void (ptr, i32, ptr, ...) @col_append_fstr(ptr noundef %129, i32 noundef 25, ptr noundef @.str.30, ptr noundef %131, i32 noundef %132)
  %133 = load i32, ptr %15, align 4
  %134 = add i32 %133, 1
  store i32 %134, ptr %15, align 4
  br label %52, !llvm.loop !8

135:                                              ; preds = %52
  %136 = load ptr, ptr %7, align 8
  %137 = load i32, ptr %8, align 4
  %138 = load ptr, ptr %9, align 8
  %139 = load ptr, ptr %10, align 8
  %140 = load ptr, ptr %11, align 8
  %141 = load ptr, ptr %12, align 8
  %142 = call i32 @dissect_dcom_HRESULT(ptr noundef %136, i32 noundef %137, ptr noundef %138, ptr noundef %139, ptr noundef %140, ptr noundef %141, ptr noundef %18)
  store i32 %142, ptr %8, align 4
  %143 = load ptr, ptr %9, align 8
  %144 = getelementptr inbounds nuw %struct._packet_info, ptr %143, i32 0, i32 1
  %145 = load ptr, ptr %144, align 8
  %146 = load i32, ptr %18, align 4
  %147 = call ptr @val_to_str(i32 noundef %146, ptr noundef @dcom_hresult_vals, ptr noundef @.str.29)
  call void (ptr, i32, ptr, ...) @col_append_fstr(ptr noundef %145, i32 noundef 25, ptr noundef @.str.31, ptr noundef %147)
  %148 = load i32, ptr %8, align 4
  call void @llvm.lifetime.end.p0(i64 16, ptr %25) #6
  call void @llvm.lifetime.end.p0(i64 8, ptr %24) #6
  call void @llvm.lifetime.end.p0(i64 8, ptr %23) #6
  call void @llvm.lifetime.end.p0(i64 8, ptr %22) #6
  call void @llvm.lifetime.end.p0(i64 16, ptr %21) #6
  call void @llvm.lifetime.end.p0(i64 16, ptr %20) #6
  call void @llvm.lifetime.end.p0(i64 4, ptr %19) #6
  call void @llvm.lifetime.end.p0(i64 4, ptr %18) #6
  call void @llvm.lifetime.end.p0(i64 8, ptr %17) #6
  call void @llvm.lifetime.end.p0(i64 8, ptr %16) #6
  call void @llvm.lifetime.end.p0(i64 4, ptr %15) #6
  call void @llvm.lifetime.end.p0(i64 4, ptr %14) #6
  call void @llvm.lifetime.end.p0(i64 4, ptr %13) #6
  ret i32 %148
}