; Function Attrs: null_pointer_is_valid sspstrong uwtable
define internal i32 @dissect_remunk_remqueryinterface_resp(ptr noundef %0, i32 noundef %1, ptr noundef %2, ptr noundef %3, ptr noundef %4, ptr noundef %5) #0 {
  %7 = alloca i32, align 4
  %8 = alloca i32, align 4
  %9 = alloca i32, align 4
  %10 = alloca %struct._e_guid_t, align 4
  %11 = alloca i64, align 8
  %12 = alloca i64, align 8
  %13 = alloca %struct._e_guid_t, align 4
  call void @llvm.lifetime.start.p0(i64 4, ptr nonnull %7) #6
  call void @llvm.lifetime.start.p0(i64 4, ptr nonnull %8) #6
  call void @llvm.lifetime.start.p0(i64 4, ptr nonnull %9) #6
  call void @llvm.lifetime.start.p0(i64 16, ptr nonnull %10) #6
  %14 = getelementptr inbounds nuw i8, ptr %4, i64 64
  %15 = load ptr, ptr %14, align 8
  %16 = getelementptr inbounds nuw i8, ptr %15, i64 80
  %17 = load ptr, ptr %16, align 8
  call void @llvm.lifetime.start.p0(i64 8, ptr nonnull %11) #6
  call void @llvm.lifetime.start.p0(i64 8, ptr nonnull %12) #6
  call void @llvm.lifetime.start.p0(i64 16, ptr nonnull %13) #6
  %18 = tail call i32 @dissect_dcom_that(ptr noundef %0, i32 noundef %1, ptr noundef %2, ptr noundef %3, ptr noundef %4, ptr noundef %5)
  %19 = call i32 @dissect_dcom_dcerpc_pointer(ptr noundef %0, i32 noundef %18, ptr noundef %2, ptr noundef %3, ptr noundef %4, ptr noundef %5, ptr noundef nonnull %7)
  %20 = call i32 @dissect_dcom_dcerpc_array_size(ptr noundef %0, i32 noundef %19, ptr noundef %2, ptr noundef %3, ptr noundef %4, ptr noundef %5, ptr noundef nonnull %8)
  %21 = load i32, ptr %8, align 4
  %22 = add i32 %21, -1
  store i32 %22, ptr %8, align 4
  %.not70 = icmp eq i32 %21, 0
  br i1 %.not70, label %._crit_edge, label %.lr.ph

.lr.ph:                                           ; preds = %6
  %.not67 = icmp eq ptr %17, null
  %23 = getelementptr inbounds nuw i8, ptr %17, i64 8
  %24 = getelementptr inbounds nuw i8, ptr %2, i64 160
  %25 = getelementptr inbounds nuw i8, ptr %2, i64 8
  br label %26

26:                                               ; preds = %.lr.ph, %49
  %.073 = phi i32 [ %20, %.lr.ph ], [ %42, %49 ]
  %.06571 = phi i32 [ 1, %.lr.ph ], [ %56, %49 ]
  %27 = load i32, ptr @hf_remunk_qiresult, align 4
  %28 = call ptr @proto_tree_add_item(ptr noundef %3, i32 noundef %27, ptr noundef %0, i32 noundef %.073, i32 noundef 0, i32 noundef 0)
  %29 = load i32, ptr @ett_remunk_rqi_result, align 4
  %30 = call ptr @proto_item_add_subtree(ptr noundef %28, i32 noundef %29)
  %31 = call i32 @dissect_dcom_HRESULT(ptr noundef %0, i32 noundef %.073, ptr noundef %2, ptr noundef %30, ptr noundef %4, ptr noundef %5, ptr noundef nonnull %9)
  %32 = call i32 @dissect_dcom_dcerpc_pointer(ptr noundef %0, i32 noundef %31, ptr noundef %2, ptr noundef %30, ptr noundef %4, ptr noundef %5, ptr noundef nonnull %7)
  br i1 %.not67, label %40, label %33

33:                                               ; preds = %26
  %34 = load i32, ptr %17, align 8
  %.not68 = icmp ugt i32 %.06571, %34
  br i1 %.not68, label %40, label %35

35:                                               ; preds = %33
  %36 = load ptr, ptr %23, align 8
  %37 = add i32 %.06571, -1
  %38 = zext i32 %37 to i64
  %39 = getelementptr %struct._e_guid_t, ptr %36, i64 %38
  call void @llvm.memcpy.p0.p0.i64(ptr noundef nonnull align 4 dereferenceable(16) %10, ptr noundef align 4 dereferenceable(16) %39, i64 16, i1 false)
  br label %41

40:                                               ; preds = %33, %26
  call void @llvm.memset.p0.i64(ptr noundef nonnull align 4 dereferenceable(16) %10, i8 0, i64 16, i1 false)
  br label %41

41:                                               ; preds = %40, %35
  %42 = call i32 @dissect_dcom_STDOBJREF(ptr noundef %0, i32 noundef %32, ptr noundef %2, ptr noundef %30, ptr noundef %4, ptr noundef %5, i32 noundef 0, ptr noundef nonnull %11, ptr noundef nonnull %12, ptr noundef nonnull %13)
  %43 = load i32, ptr %24, align 8
  %44 = icmp eq i32 %43, 2
  br i1 %44, label %45, label %49

45:                                               ; preds = %41
  %46 = load i64, ptr %11, align 8
  %47 = load i64, ptr %12, align 8
  %48 = call ptr @dcom_interface_new(ptr noundef %2, ptr noundef nonnull %24, ptr noundef nonnull %10, i64 noundef %46, i64 noundef %47, ptr noundef nonnull %13)
  br label %49

49:                                               ; preds = %45, %41
  %50 = load i32, ptr %9, align 4
  %51 = call ptr @val_to_str(i32 noundef %50, ptr noundef nonnull @dcom_hresult_vals, ptr noundef nonnull @.str.29)
  call void (ptr, ptr, ...) @proto_item_append_text(ptr noundef %28, ptr noundef nonnull @.str.28, i32 noundef %.06571, ptr noundef %51)
  %reass.sub = sub i32 %42, %31
  %52 = add i32 %reass.sub, 4
  call void @proto_item_set_len(ptr noundef %28, i32 noundef %52)
  %53 = load ptr, ptr %25, align 8
  %54 = load i32, ptr %9, align 4
  %55 = call ptr @val_to_str(i32 noundef %54, ptr noundef nonnull @dcom_hresult_vals, ptr noundef nonnull @.str.29)
  call void (ptr, i32, ptr, ...) @col_append_fstr(ptr noundef %53, i32 noundef 25, ptr noundef nonnull @.str.30, ptr noundef %55, i32 noundef %.06571)
  %56 = add i32 %.06571, 1
  %57 = load i32, ptr %8, align 4
  %58 = add i32 %57, -1
  store i32 %58, ptr %8, align 4
  %.not = icmp eq i32 %57, 0
  br i1 %.not, label %._crit_edge, label %26, !llvm.loop !8

._crit_edge:                                      ; preds = %49, %6
  %.0.lcssa = phi i32 [ %20, %6 ], [ %42, %49 ]
  %59 = call i32 @dissect_dcom_HRESULT(ptr noundef %0, i32 noundef %.0.lcssa, ptr noundef %2, ptr noundef %3, ptr noundef %4, ptr noundef %5, ptr noundef nonnull %9)
  %60 = getelementptr inbounds nuw i8, ptr %2, i64 8
  %61 = load ptr, ptr %60, align 8
  %62 = load i32, ptr %9, align 4
  %63 = call ptr @val_to_str(i32 noundef %62, ptr noundef nonnull @dcom_hresult_vals, ptr noundef nonnull @.str.29)
  call void (ptr, i32, ptr, ...) @col_append_fstr(ptr noundef %61, i32 noundef 25, ptr noundef nonnull @.str.31, ptr noundef %63)
  call void @llvm.lifetime.end.p0(i64 16, ptr nonnull %13) #6
  call void @llvm.lifetime.end.p0(i64 8, ptr nonnull %12) #6
  call void @llvm.lifetime.end.p0(i64 8, ptr nonnull %11) #6
  call void @llvm.lifetime.end.p0(i64 16, ptr nonnull %10) #6
  call void @llvm.lifetime.end.p0(i64 4, ptr nonnull %9) #6
  call void @llvm.lifetime.end.p0(i64 4, ptr nonnull %8) #6
  call void @llvm.lifetime.end.p0(i64 4, ptr nonnull %7) #6
  ret i32 %59
}